target datalayout = "e-m:e-p270:32:32-p271:32:32-p272:64:64-i64:64-i128:128-f80:128-n8:16:32:64-S128"
target triple = "x86_64-pc-linux-gnu"

%"struct.nanobind::dlpack::dtype" = type { i8, i8, i16 }
%"class.nanobind::handle" = type { ptr }
%"struct.nanobind::dlpack::dltensor" = type { ptr, %"struct.nanobind::dlpack::device", i32, %"struct.nanobind::dlpack::dtype", ptr, ptr, i64 }
%"struct.nanobind::dlpack::device" = type { i32, i32 }
%"class.Eigen::SparseMatrix" = type { %"class.Eigen::SparseCompressedBase", i64, i64, ptr, ptr, %"class.Eigen::internal::CompressedStorage" }
%"class.Eigen::SparseCompressedBase" = type { %"class.Eigen::SparseMatrixBase" }
%"class.Eigen::SparseMatrixBase" = type { i8 }
%"class.Eigen::internal::CompressedStorage" = type { ptr, ptr, i64, i64 }
%"class.nanobind::ndarray.1198" = type { ptr, %"struct.nanobind::dlpack::dltensor" }
%"class.nanobind::ndarray.1199" = type { ptr, %"struct.nanobind::dlpack::dltensor" }
%class.anon.1279 = type { i8 }
%"struct.nanobind::detail::tuple.1281" = type { %"struct.nanobind::detail::type_caster.1282" }
%"struct.nanobind::detail::type_caster.1282" = type { %"class.Eigen::SparseMatrix", %"struct.nanobind::detail::type_caster.1283", %"struct.nanobind::detail::type_caster.1284", %"struct.nanobind::detail::type_caster.1284" }
%"struct.nanobind::detail::type_caster.1283" = type { %"class.nanobind::ndarray.1198" }
%"struct.nanobind::detail::type_caster.1284" = type { %"class.nanobind::ndarray.1199" }

; Function Attrs: inlinehint mustprogress nounwind optsize uwtable
define linkonce_odr hidden void @_ZN5Eigen12SparseMatrixIfLi1EiED2Ev(ptr noundef nonnull align 8 dereferenceable(72) %0) unnamed_addr #11 comdat align 2 {
  %2 = alloca ptr, align 8
  store ptr %0, ptr %2, align 8, !tbaa !2216
  %3 = load ptr, ptr %2, align 8
  %4 = getelementptr inbounds nuw %"class.Eigen::SparseMatrix", ptr %3, i32 0, i32 3
  %5 = load ptr, ptr %4, align 8, !tbaa !2218
  call void @free(ptr noundef %5) #26
  %6 = getelementptr inbounds nuw %"class.Eigen::SparseMatrix", ptr %3, i32 0, i32 4
  %7 = load ptr, ptr %6, align 8, !tbaa !2223
  call void @free(ptr noundef %7) #26
  %8 = getelementptr inbounds nuw %"class.Eigen::SparseMatrix", ptr %3, i32 0, i32 5
  call void @_ZN5Eigen8internal17CompressedStorageIfiED2Ev(ptr noundef nonnull align 8 dereferenceable(32) %8) #26
  ret void
}

; Function Attrs: alwaysinline mustprogress nounwind optsize uwtable
define linkonce_odr hidden noundef ptr @_ZNK8nanobind6handle3ptrEv(ptr noundef nonnull align 8 dereferenceable(8) %0) #7 comdat align 2 {
  %2 = alloca ptr, align 8
  store ptr %0, ptr %2, align 8, !tbaa !20
  %3 = load ptr, ptr %2, align 8
  %4 = getelementptr inbounds nuw %"class.nanobind::handle", ptr %3, i32 0, i32 0
  %5 = load ptr, ptr %4, align 8, !tbaa !22
  ret ptr %5
}

; Function Attrs: mustprogress nounwind optsize uwtable
define linkonce_odr hidden ptr @_ZN8nanobind6detail11type_casterIN5Eigen12SparseMatrixIfLi1EiEEiE8from_cppEOS4_NS_9rv_policyEPNS0_12cleanup_listE(ptr noundef nonnull align 8 dereferenceable(72) %0, i32 noundef %1, ptr noundef %2) #1 comdat align 2 {
  %4 = alloca %"class.nanobind::handle", align 8
  %5 = alloca ptr, align 8
  %6 = alloca i32, align 4
  %7 = alloca ptr, align 8
  store ptr %0, ptr %5, align 8, !tbaa !2216
  store i32 %1, ptr %6, align 4, !tbaa !31
  store ptr %2, ptr %7, align 8, !tbaa !143
  %8 = load i32, ptr %6, align 4, !tbaa !31
  %9 = icmp eq i32 %8, 0
  br i1 %9, label %13, label %10

10:                                               ; preds = %3
  %11 = load i32, ptr %6, align 4, !tbaa !31
  %12 = icmp eq i32 %11, 1
  br i1 %12, label %13, label %14

13:                                               ; preds = %10, %3
  store i32 4, ptr %6, align 4, !tbaa !31
  br label %14

14:                                               ; preds = %13, %10
  %15 = load ptr, ptr %5, align 8, !tbaa !2216
  %16 = load i32, ptr %6, align 4, !tbaa !31
  %17 = load ptr, ptr %7, align 8, !tbaa !143
  %18 = call ptr @_ZN8nanobind6detail11type_casterIN5Eigen12SparseMatrixIfLi1EiEEiE8from_cppERKS4_NS_9rv_policyEPNS0_12cleanup_listE(ptr noundef nonnull align 8 dereferenceable(72) %15, i32 noundef %16, ptr noundef %17) #26
  %19 = getelementptr inbounds nuw %"class.nanobind::handle", ptr %4, i32 0, i32 0
  store ptr %18, ptr %19, align 8
  %20 = getelementptr inbounds nuw %"class.nanobind::handle", ptr %4, i32 0, i32 0
  %21 = load ptr, ptr %20, align 8
  ret ptr %21
}

; Function Attrs: inlinehint mustprogress optsize uwtable
define internal void @"_ZZL28nanobind_init_test_eigen_extRN8nanobind7module_EENK4$_36clERKN5Eigen12SparseMatrixIfLi1EiEE"(ptr dead_on_unwind noalias writable sret(%"class.Eigen::SparseMatrix") align 8 %0, ptr noundef nonnull align 1 dereferenceable(1) %1, ptr noundef nonnull align 8 dereferenceable(72) %2) #10 align 2 {
  %4 = alloca ptr, align 8
  %5 = alloca ptr, align 8
  %6 = alloca ptr, align 8
  store ptr %0, ptr %4, align 8
  store ptr %1, ptr %5, align 8, !tbaa !41
  store ptr %2, ptr %6, align 8, !tbaa !2216
  %7 = load ptr, ptr %6, align 8, !tbaa !2216
  call void @_ZN5Eigen12SparseMatrixIfLi1EiEC2ERKS1_(ptr noundef nonnull align 8 dereferenceable(72) %0, ptr noundef nonnull align 8 dereferenceable(72) %7) #24
  ret void
}

; Function Attrs: mustprogress nounwind optsize uwtable
define linkonce_odr hidden noundef nonnull align 8 dereferenceable(72) ptr @_ZN8nanobind6detail11type_casterIN5Eigen12SparseMatrixIfLi1EiEEiEcvRS4_Ev(ptr noundef nonnull align 8 dereferenceable(240) %0) #1 comdat align 2 {
  %2 = alloca ptr, align 8
  store ptr %0, ptr %2, align 8, !tbaa !2470
  %3 = load ptr, ptr %2, align 8
  %4 = getelementptr inbounds nuw %"struct.nanobind::detail::type_caster.1282", ptr %3, i32 0, i32 0
  ret ptr %4
}

; Function Attrs: alwaysinline mustprogress nounwind optsize uwtable
define linkonce_odr hidden void @_ZN8nanobind6handleC2EPK7_object(ptr noundef nonnull align 8 dereferenceable(8) %0, ptr noundef %1) unnamed_addr #7 comdat align 2 {
  %3 = alloca ptr, align 8
  %4 = alloca ptr, align 8
  store ptr %0, ptr %3, align 8, !tbaa !20
  store ptr %1, ptr %4, align 8, !tbaa !14
  %5 = load ptr, ptr %3, align 8
  %6 = getelementptr inbounds nuw %"class.nanobind::handle", ptr %5, i32 0, i32 0
  %7 = load ptr, ptr %4, align 8, !tbaa !14
  store ptr %7, ptr %6, align 8, !tbaa !22
  ret void
}

; Function Attrs: alwaysinline mustprogress nounwind optsize uwtable
define linkonce_odr hidden noundef nonnull align 8 dereferenceable(240) ptr @_ZN8nanobind6detail5tupleIJNS0_11type_casterIN5Eigen12SparseMatrixIfLi1EiEEiEEEE3getILm0EEERDav(ptr noundef nonnull align 8 dereferenceable(240) %0) #7 comdat align 2 {
  %2 = alloca ptr, align 8
  store ptr %0, ptr %2, align 8, !tbaa !2468
  %3 = load ptr, ptr %2, align 8
  %4 = getelementptr inbounds nuw %"struct.nanobind::detail::tuple.1281", ptr %3, i32 0, i32 0
  ret ptr %4
}

; Function Attrs: alwaysinline mustprogress optsize uwtable
define internal noundef ptr @"_ZZN8nanobind6detail11func_createILb0ELb1EZL28nanobind_init_test_eigen_extRNS_7module_EE4$_36N5Eigen12SparseMatrixIfLi1EiEEJRKS7_EJLm0EEJNS_5scopeENS_4nameEEEEP7_objectOT1_PFT2_DpT3_ESt16integer_sequenceImJXspT4_EEEDpRKT5_ENKUlPvPSD_PhNS_9rv_policyEPNS0_12cleanup_listEE_clESR_SS_ST_SU_SW_"(ptr noundef nonnull align 1 dereferenceable(1) %0, ptr noundef %1, ptr noundef %2, ptr noundef %3, i32 noundef %4, ptr noundef %5) #5 align 2 personality ptr @__gxx_personality_v0 {
  %7 = alloca ptr, align 8
  %8 = alloca ptr, align 8
  %9 = alloca ptr, align 8
  %10 = alloca ptr, align 8
  %11 = alloca ptr, align 8
  %12 = alloca i32, align 4
  %13 = alloca ptr, align 8
  %14 = alloca ptr, align 8
  %15 = alloca %"struct.nanobind::detail::tuple.1281", align 8
  %16 = alloca ptr, align 8
  %17 = alloca i32, align 4
  %18 = alloca %"class.nanobind::handle", align 8
  %19 = alloca i32, align 4
  %20 = alloca ptr, align 8
  %21 = alloca %"class.nanobind::handle", align 8
  %22 = alloca %"class.Eigen::SparseMatrix", align 8
  store ptr %0, ptr %8, align 8, !tbaa !41
  store ptr %1, ptr %9, align 8, !tbaa !41
  store ptr %2, ptr %10, align 8, !tbaa !141
  store ptr %3, ptr %11, align 8, !tbaa !39
  store i32 %4, ptr %12, align 4, !tbaa !31
  store ptr %5, ptr %13, align 8, !tbaa !143
  call void @llvm.lifetime.start.p0(i64 8, ptr %14) #25
  %23 = load ptr, ptr %9, align 8, !tbaa !41
  store ptr %23, ptr %14, align 8, !tbaa !2464
  call void @llvm.lifetime.start.p0(i64 240, ptr %15) #25
  call void @_ZN8nanobind6detail5tupleIJNS0_11type_casterIN5Eigen12SparseMatrixIfLi1EiEEiEEEEC2Ev(ptr noundef nonnull align 8 dereferenceable(240) %15) #24
  %24 = invoke noundef nonnull align 8 dereferenceable(240) ptr @_ZN8nanobind6detail5tupleIJNS0_11type_casterIN5Eigen12SparseMatrixIfLi1EiEEiEEEE3getILm0EEERDav(ptr noundef nonnull align 8 dereferenceable(240) %15) #24
          to label %25 unwind label %38

25:                                               ; preds = %6
  %26 = load ptr, ptr %10, align 8, !tbaa !141
  %27 = getelementptr inbounds nuw ptr, ptr %26, i64 0
  %28 = load ptr, ptr %27, align 8, !tbaa !14
  invoke void @_ZN8nanobind6handleC2EPK7_object(ptr noundef nonnull align 8 dereferenceable(8) %18, ptr noundef %28) #24
          to label %29 unwind label %38

29:                                               ; preds = %25
  %30 = load ptr, ptr %11, align 8, !tbaa !39
  %31 = getelementptr inbounds nuw i8, ptr %30, i64 0
  %32 = load i8, ptr %31, align 1, !tbaa !30
  %33 = load ptr, ptr %13, align 8, !tbaa !143
  %34 = getelementptr inbounds nuw %"class.nanobind::handle", ptr %18, i32 0, i32 0
  %35 = load ptr, ptr %34, align 8
  %36 = call noundef zeroext i1 @_ZN8nanobind6detail11type_casterIN5Eigen12SparseMatrixIfLi1EiEEiE11from_pythonENS_6handleEhPNS0_12cleanup_listE(ptr noundef nonnull align 8 dereferenceable(240) %24, ptr %35, i8 noundef zeroext %32, ptr noundef %33) #26
  br i1 %36, label %42, label %37

37:                                               ; preds = %29
  store ptr inttoptr (i64 1 to ptr), ptr %7, align 8
  store i32 1, ptr %19, align 4
  br label %59

38:                                               ; preds = %25, %6
  %39 = landingpad { ptr, i32 }
          cleanup
  %40 = extractvalue { ptr, i32 } %39, 0
  store ptr %40, ptr %16, align 8
  %41 = extractvalue { ptr, i32 } %39, 1
  store i32 %41, ptr %17, align 4
  br label %61

42:                                               ; preds = %29
  call void @llvm.lifetime.start.p0(i64 8, ptr %20) #25
  call void @llvm.lifetime.start.p0(i64 8, ptr %21) #25
  call void @llvm.lifetime.start.p0(i64 72, ptr %22) #25
  %43 = load ptr, ptr %14, align 8, !tbaa !2464
  %44 = invoke noundef nonnull align 8 dereferenceable(240) ptr @_ZN8nanobind6detail5tupleIJNS0_11type_casterIN5Eigen12SparseMatrixIfLi1EiEEiEEEE3getILm0EEERDav(ptr noundef nonnull align 8 dereferenceable(240) %15) #24
          to label %45 unwind label %55

45:                                               ; preds = %42
  %46 = invoke noundef nonnull align 8 dereferenceable(72) ptr @_ZN8nanobind6detail11type_casterIN5Eigen12SparseMatrixIfLi1EiEEiEcvRS4_Ev(ptr noundef nonnull align 8 dereferenceable(240) %44) #24
          to label %47 unwind label %55

47:                                               ; preds = %45
  invoke void @"_ZZL28nanobind_init_test_eigen_extRN8nanobind7module_EENK4$_36clERKN5Eigen12SparseMatrixIfLi1EiEE"(ptr dead_on_unwind writable sret(%"class.Eigen::SparseMatrix") align 8 %22, ptr noundef nonnull align 1 dereferenceable(1) %43, ptr noundef nonnull align 8 dereferenceable(72) %46) #24
          to label %48 unwind label %55

48:                                               ; preds = %47
  %49 = load i32, ptr %12, align 4, !tbaa !31
  %50 = load ptr, ptr %13, align 8, !tbaa !143
  %51 = call ptr @_ZN8nanobind6detail11type_casterIN5Eigen12SparseMatrixIfLi1EiEEiE8from_cppEOS4_NS_9rv_policyEPNS0_12cleanup_listE(ptr noundef nonnull align 8 dereferenceable(72) %22, i32 noundef %49, ptr noundef %50) #26
  %52 = getelementptr inbounds nuw %"class.nanobind::handle", ptr %21, i32 0, i32 0
  store ptr %51, ptr %52, align 8
  %53 = call noundef ptr @_ZNK8nanobind6handle3ptrEv(ptr noundef nonnull align 8 dereferenceable(8) %21) #24
  store ptr %53, ptr %20, align 8, !tbaa !14
  call void @_ZN5Eigen12SparseMatrixIfLi1EiED2Ev(ptr noundef nonnull align 8 dereferenceable(72) %22) #26
  call void @llvm.lifetime.end.p0(i64 72, ptr %22) #25
  call void @llvm.lifetime.end.p0(i64 8, ptr %21) #25
  %54 = load ptr, ptr %20, align 8, !tbaa !14
  store ptr %54, ptr %7, align 8
  store i32 1, ptr %19, align 4
  call void @llvm.lifetime.end.p0(i64 8, ptr %20) #25
  br label %59

55:                                               ; preds = %47, %45, %42
  %56 = landingpad { ptr, i32 }
          cleanup
  %57 = extractvalue { ptr, i32 } %56, 0
  store ptr %57, ptr %16, align 8
  %58 = extractvalue { ptr, i32 } %56, 1
  store i32 %58, ptr %17, align 4
  call void @llvm.lifetime.end.p0(i64 72, ptr %22) #25
  call void @llvm.lifetime.end.p0(i64 8, ptr %21) #25
  call void @llvm.lifetime.end.p0(i64 8, ptr %20) #25
  br label %61

59:                                               ; preds = %48, %37
  call void @_ZN8nanobind6detail5tupleIJNS0_11type_casterIN5Eigen12SparseMatrixIfLi1EiEEiEEEED2Ev(ptr noundef nonnull align 8 dereferenceable(240) %15) #26
  call void @llvm.lifetime.end.p0(i64 240, ptr %15) #25
  call void @llvm.lifetime.end.p0(i64 8, ptr %14) #25
  %60 = load ptr, ptr %7, align 8
  ret ptr %60

61:                                               ; preds = %55, %38
  call void @_ZN8nanobind6detail5tupleIJNS0_11type_casterIN5Eigen12SparseMatrixIfLi1EiEEiEEEED2Ev(ptr noundef nonnull align 8 dereferenceable(240) %15) #26
  call void @llvm.lifetime.end.p0(i64 240, ptr %15) #25
  call void @llvm.lifetime.end.p0(i64 8, ptr %14) #25
  br label %62

62:                                               ; preds = %61
  %63 = load ptr, ptr %16, align 8
  %64 = load i32, ptr %17, align 4
  %65 = insertvalue { ptr, i32 } poison, ptr %63, 0
  %66 = insertvalue { ptr, i32 } %65, i32 %64, 1
  resume { ptr, i32 } %66
}

; Function Attrs: inlinehint mustprogress optsize uwtable
define internal noundef ptr @"_ZZN8nanobind6detail11func_createILb0ELb1EZL28nanobind_init_test_eigen_extRNS_7module_EE4$_36N5Eigen12SparseMatrixIfLi1EiEEJRKS7_EJLm0EEJNS_5scopeENS_4nameEEEEP7_objectOT1_PFT2_DpT3_ESt16integer_sequenceImJXspT4_EEEDpRKT5_ENUlPvPSD_PhNS_9rv_policyEPNS0_12cleanup_listEE_8__invokeESR_SS_ST_SU_SW_"(ptr noundef %0, ptr noundef %1, ptr noundef %2, i32 noundef %3, ptr noundef %4) #10 align 2 {
  %6 = alloca ptr, align 8
  %7 = alloca ptr, align 8
  %8 = alloca ptr, align 8
  %9 = alloca i32, align 4
  %10 = alloca ptr, align 8
  %11 = alloca %class.anon.1279, align 1
  store ptr %0, ptr %6, align 8, !tbaa !41
  store ptr %1, ptr %7, align 8, !tbaa !141
  store ptr %2, ptr %8, align 8, !tbaa !39
  store i32 %3, ptr %9, align 4, !tbaa !31
  store ptr %4, ptr %10, align 8, !tbaa !143
  %12 = load ptr, ptr %6, align 8, !tbaa !41
  %13 = load ptr, ptr %7, align 8, !tbaa !141
  %14 = load ptr, ptr %8, align 8, !tbaa !39
  %15 = load i32, ptr %9, align 4, !tbaa !31
  %16 = load ptr, ptr %10, align 8, !tbaa !143
  %17 = call noundef ptr @"_ZZN8nanobind6detail11func_createILb0ELb1EZL28nanobind_init_test_eigen_extRNS_7module_EE4$_36N5Eigen12SparseMatrixIfLi1EiEEJRKS7_EJLm0EEJNS_5scopeENS_4nameEEEEP7_objectOT1_PFT2_DpT3_ESt16integer_sequenceImJXspT4_EEEDpRKT5_ENKUlPvPSD_PhNS_9rv_policyEPNS0_12cleanup_listEE_clESR_SS_ST_SU_SW_"(ptr noundef nonnull align 1 dereferenceable(1) %11, ptr noundef %12, ptr noundef %13, ptr noundef %14, i32 noundef %15, ptr noundef %16) #24
  ret ptr %17
}