; Function Attrs: inlinehint mustprogress optsize uwtable
define internal noundef ptr @"_ZZN8nanobind6detail11func_createILb0ELb1EZL28nanobind_init_test_eigen_extRNS_7module_EE4$_36N5Eigen12SparseMatrixIfLi1EiEEJRKS7_EJLm0EEJNS_5scopeENS_4nameEEEEP7_objectOT1_PFT2_DpT3_ESt16integer_sequenceImJXspT4_EEEDpRKT5_ENUlPvPSD_PhNS_9rv_policyEPNS0_12cleanup_listEE_8__invokeESR_SS_ST_SU_SW_"(ptr readnone captures(none) %0, ptr noundef readonly captures(none) %1, ptr noundef readonly captures(none) %2, i32 noundef %3, ptr noundef %4) #18 align 2 personality ptr @__gxx_personality_v0 {
  %6 = alloca %"struct.nanobind::detail::tuple.1281", align 8
  %7 = alloca %"class.Eigen::SparseMatrix", align 8
  call void @llvm.lifetime.start.p0(i64 240, ptr nonnull %6) #32
  call void @_ZN8nanobind6detail5tupleIJNS0_11type_casterIN5Eigen12SparseMatrixIfLi1EiEEiEEEEC2Ev(ptr noundef nonnull align 8 dereferenceable(240) %6) #31
  %8 = load ptr, ptr %1, align 8, !tbaa !107
  %9 = load i8, ptr %2, align 1, !tbaa !74
  %10 = call noundef zeroext i1 @_ZN8nanobind6detail11type_casterIN5Eigen12SparseMatrixIfLi1EiEEiE11from_pythonENS_6handleEhPNS0_12cleanup_listE(ptr noundef nonnull align 8 dereferenceable(240) %6, ptr %8, i8 noundef zeroext %9, ptr noundef %4) #33
  br i1 %10, label %11, label %"_ZZN8nanobind6detail11func_createILb0ELb1EZL28nanobind_init_test_eigen_extRNS_7module_EE4$_36N5Eigen12SparseMatrixIfLi1EiEEJRKS7_EJLm0EEJNS_5scopeENS_4nameEEEEP7_objectOT1_PFT2_DpT3_ESt16integer_sequenceImJXspT4_EEEDpRKT5_ENKUlPvPSD_PhNS_9rv_policyEPNS0_12cleanup_listEE_clESR_SS_ST_SU_SW_.exit"

11:                                               ; preds = %5
  call void @llvm.lifetime.start.p0(i64 72, ptr nonnull %7) #32
  invoke void @_ZN5Eigen12SparseMatrixIfLi1EiEC2ERKS1_(ptr noundef nonnull align 8 dereferenceable(72) %7, ptr noundef nonnull align 8 dereferenceable(72) %6) #31
          to label %"_ZZL28nanobind_init_test_eigen_extRN8nanobind7module_EENK4$_36clERKN5Eigen12SparseMatrixIfLi1EiEE.exit" unwind label %18

"_ZZL28nanobind_init_test_eigen_extRN8nanobind7module_EENK4$_36clERKN5Eigen12SparseMatrixIfLi1EiEE.exit": ; preds = %11
  %or.cond.i = icmp ult i32 %3, 2
  %spec.store.select.i = select i1 %or.cond.i, i32 4, i32 %3
  %12 = call ptr @_ZN8nanobind6detail11type_casterIN5Eigen12SparseMatrixIfLi1EiEEiE8from_cppERKS4_NS_9rv_policyEPNS0_12cleanup_listE(ptr noundef nonnull align 8 dereferenceable(72) %7, i32 noundef %spec.store.select.i, ptr noundef %4) #33
  %13 = getelementptr inbounds nuw i8, ptr %7, i64 24
  %14 = load ptr, ptr %13, align 8, !tbaa !655
  call void @free(ptr noundef %14) #33
  %15 = getelementptr inbounds nuw i8, ptr %7, i64 32
  %16 = load ptr, ptr %15, align 8, !tbaa !659
  call void @free(ptr noundef %16) #33
  %17 = getelementptr inbounds nuw i8, ptr %7, i64 40
  call void @_ZN5Eigen8internal17CompressedStorageIfiED2Ev(ptr noundef nonnull align 8 dereferenceable(32) %17) #33
  call void @llvm.lifetime.end.p0(i64 72, ptr nonnull %7) #32
  br label %"_ZZN8nanobind6detail11func_createILb0ELb1EZL28nanobind_init_test_eigen_extRNS_7module_EE4$_36N5Eigen12SparseMatrixIfLi1EiEEJRKS7_EJLm0EEJNS_5scopeENS_4nameEEEEP7_objectOT1_PFT2_DpT3_ESt16integer_sequenceImJXspT4_EEEDpRKT5_ENKUlPvPSD_PhNS_9rv_policyEPNS0_12cleanup_listEE_clESR_SS_ST_SU_SW_.exit"

18:                                               ; preds = %11
  %19 = landingpad { ptr, i32 }
          cleanup
  call void @llvm.lifetime.end.p0(i64 72, ptr nonnull %7) #32
  call void @_ZN8nanobind6detail5tupleIJNS0_11type_casterIN5Eigen12SparseMatrixIfLi1EiEEiEEEED2Ev(ptr noundef nonnull align 8 dereferenceable(240) %6) #33
  call void @llvm.lifetime.end.p0(i64 240, ptr nonnull %6) #32
  resume { ptr, i32 } %19

"_ZZN8nanobind6detail11func_createILb0ELb1EZL28nanobind_init_test_eigen_extRNS_7module_EE4$_36N5Eigen12SparseMatrixIfLi1EiEEJRKS7_EJLm0EEJNS_5scopeENS_4nameEEEEP7_objectOT1_PFT2_DpT3_ESt16integer_sequenceImJXspT4_EEEDpRKT5_ENKUlPvPSD_PhNS_9rv_policyEPNS0_12cleanup_listEE_clESR_SS_ST_SU_SW_.exit": ; preds = %5, %"_ZZL28nanobind_init_test_eigen_extRN8nanobind7module_EENK4$_36clERKN5Eigen12SparseMatrixIfLi1EiEE.exit"
  %.0.i = phi ptr [ %12, %"_ZZL28nanobind_init_test_eigen_extRN8nanobind7module_EENK4$_36clERKN5Eigen12SparseMatrixIfLi1EiEE.exit" ], [ inttoptr (i64 1 to ptr), %5 ]
  %20 = getelementptr inbounds nuw i8, ptr %6, i64 184
  %21 = load ptr, ptr %20, align 8, !tbaa !682
  call void @_ZN8nanobind6detail15ndarray_dec_refEPNS0_14ndarray_handleE(ptr noundef %21) #33
  %22 = getelementptr inbounds nuw i8, ptr %6, i64 128
  %23 = load ptr, ptr %22, align 8, !tbaa !682
  call void @_ZN8nanobind6detail15ndarray_dec_refEPNS0_14ndarray_handleE(ptr noundef %23) #33
  %24 = getelementptr inbounds nuw i8, ptr %6, i64 72
  %25 = load ptr, ptr %24, align 8, !tbaa !680
  call void @_ZN8nanobind6detail15ndarray_dec_refEPNS0_14ndarray_handleE(ptr noundef %25) #33
  %26 = getelementptr inbounds nuw i8, ptr %6, i64 24
  %27 = load ptr, ptr %26, align 8, !tbaa !655
  call void @free(ptr noundef %27) #33
  %28 = getelementptr inbounds nuw i8, ptr %6, i64 32
  %29 = load ptr, ptr %28, align 8, !tbaa !659
  call void @free(ptr noundef %29) #33
  %30 = getelementptr inbounds nuw i8, ptr %6, i64 40
  call void @_ZN5Eigen8internal17CompressedStorageIfiED2Ev(ptr noundef nonnull align 8 dereferenceable(32) %30) #33
  call void @llvm.lifetime.end.p0(i64 240, ptr nonnull %6) #32
  ret ptr %.0.i
}